; Function Attrs: mustprogress uwtable
define hidden void @_ZN16bound_propagator20del_constraints_coreEv(ptr noundef nonnull align 8 dereferenceable(280) %this) local_unnamed_addr #3 align 2 {
entry:
  %m_constraints = getelementptr inbounds i8, ptr %this, i64 80
  %0 = load ptr, ptr %m_constraints, align 8
  %cmp.i.i = icmp eq ptr %0, null
  br i1 %cmp.i.i, label %_ZN6vectorIN16bound_propagator10constraintELb0EjE5resetEv.exit, label %_ZN6vectorIN16bound_propagator10constraintELb0EjE3endEv.exit

_ZN6vectorIN16bound_propagator10constraintELb0EjE3endEv.exit: ; preds = %entry
  %arrayidx.i.i = getelementptr inbounds i8, ptr %0, i64 -4
  %1 = load i32, ptr %arrayidx.i.i, align 4
  %2 = zext i32 %1 to i64
  %add.ptr.i = getelementptr inbounds %"class.bound_propagator::constraint", ptr %0, i64 %2
  %cmp.not4 = icmp eq i32 %1, 0
  br i1 %cmp.not4, label %if.then.i, label %for.body.lr.ph

for.body.lr.ph:                                   ; preds = %_ZN6vectorIN16bound_propagator10constraintELb0EjE3endEv.exit
  %m_eq_manager.i = getelementptr inbounds i8, ptr %this, i64 16
  br label %for.body

for.body:                                         ; preds = %for.body.lr.ph, %_ZN16bound_propagator14del_constraintERNS_10constraintE.exit
  %__begin1.05 = phi ptr [ %0, %for.body.lr.ph ], [ %incdec.ptr, %_ZN16bound_propagator14del_constraintERNS_10constraintE.exit ]
  %bf.load.i = load i8, ptr %__begin1.05, align 8
  %bf.clear.i = and i8 %bf.load.i, 3
  %cond.i = icmp eq i8 %bf.clear.i, 0
  br i1 %cond.i, label %_ZN16bound_propagator14del_constraintERNS_10constraintE.exit, label %sw.default.i

sw.default.i:                                     ; preds = %for.body
  tail call void @_Z26notify_assertion_violationPKciS0_(ptr noundef nonnull @.str, i32 noundef 110, ptr noundef nonnull @.str.1)
  tail call void @exit(i32 noundef 114) #19
  unreachable

_ZN16bound_propagator14del_constraintERNS_10constraintE.exit: ; preds = %for.body
  %3 = getelementptr inbounds i8, ptr %__begin1.05, i64 16
  %4 = load ptr, ptr %3, align 8
  tail call void @_ZN23linear_equation_manager3delEP15linear_equation(ptr noundef nonnull align 8 dereferenceable(64) %m_eq_manager.i, ptr noundef %4)
  %incdec.ptr = getelementptr inbounds i8, ptr %__begin1.05, i64 24
  %cmp.not = icmp eq ptr %incdec.ptr, %add.ptr.i
  br i1 %cmp.not, label %for.end, label %for.body

for.end:                                          ; preds = %_ZN16bound_propagator14del_constraintERNS_10constraintE.exit
  %.pre = load ptr, ptr %m_constraints, align 8
  %tobool.not.i = icmp eq ptr %.pre, null
  br i1 %tobool.not.i, label %_ZN6vectorIN16bound_propagator10constraintELb0EjE5resetEv.exit, label %if.then.i

if.then.i:                                        ; preds = %_ZN6vectorIN16bound_propagator10constraintELb0EjE3endEv.exit, %for.end
  %5 = phi ptr [ %.pre, %for.end ], [ %0, %_ZN6vectorIN16bound_propagator10constraintELb0EjE3endEv.exit ]
  %arrayidx.i = getelementptr inbounds i8, ptr %5, i64 -4
  store i32 0, ptr %arrayidx.i, align 4
  br label %_ZN6vectorIN16bound_propagator10constraintELb0EjE5resetEv.exit

_ZN6vectorIN16bound_propagator10constraintELb0EjE5resetEv.exit: ; preds = %entry, %for.end, %if.then.i
  ret void
}